; Function Attrs: mustprogress uwtable
define dso_local void @_Z17copy_scanlinedeepRN7Imf_3_418MultiPartInputFileERNS_19MultiPartOutputFileEii(ptr noundef nonnull align 8 dereferenceable(32) %0, ptr noundef nonnull align 8 dereferenceable(16) %1, i32 noundef %2, i32 noundef %3) local_unnamed_addr #5 {
  %5 = alloca %"class.Imf_3_4::DeepScanLineInputPart", align 8
  %6 = alloca %"class.Imf_3_4::DeepScanLineOutputPart", align 8
  call void @llvm.lifetime.start.p0(i64 8, ptr nonnull %5) #28
  call void @_ZN7Imf_3_421DeepScanLineInputPartC1ERNS_18MultiPartInputFileEi(ptr noundef nonnull align 8 dereferenceable(8) %5, ptr noundef nonnull align 8 dereferenceable(32) %0, i32 noundef %2)
  call void @llvm.lifetime.start.p0(i64 8, ptr nonnull %6) #28
  call void @_ZN7Imf_3_422DeepScanLineOutputPartC1ERNS_19MultiPartOutputFileEi(ptr noundef nonnull align 8 dereferenceable(8) %6, ptr noundef nonnull align 8 dereferenceable(16) %1, i32 noundef %3)
  call void @_ZN7Imf_3_422DeepScanLineOutputPart10copyPixelsERNS_21DeepScanLineInputPartE(ptr noundef nonnull align 8 dereferenceable(8) %6, ptr noundef nonnull align 8 dereferenceable(8) %5)
  call void @llvm.lifetime.end.p0(i64 8, ptr nonnull %6) #28
  call void @llvm.lifetime.end.p0(i64 8, ptr nonnull %5) #28
  ret void
}